ccopy_reg
_reconstructor
p0
(cFWCore.ParameterSet.Config
Process
p1
c__builtin__
object
p2
Ntp3
Rp4
(dp5
S'_Process__sequences'
p6
(dp7
sS'p'
p8
g0
(cFWCore.ParameterSet.SequenceTypes
Path
p9
g2
Ntp10
Rp11
(dp12
S'_isFrozen'
p13
I00
sS'_seq'
p14
g0
(cFWCore.ParameterSet.SequenceTypes
_SequenceCollection
p15
g2
Ntp16
Rp17
(dp18
S'_collection'
p19
(lp20
g0
(cFWCore.ParameterSet.Modules
EDAnalyzer
p21
g2
Ntp22
Rp23
(dp24
S'_Parameterizable__parameterNames'
p25
(lp26
S'genInfo'
p27
aS'slimmedAddPileupInfo'
p28
aS'beamSpot'
p29
aS'photonsMiniAOD'
p30
aS'vertices'
p31
aS'BeamHaloSummary'
p32
aS'rho'
p33
aS'genparticles'
p34
asg13
I00
sg28
g0
(cFWCore.ParameterSet.Types
InputTag
p35
g2
Ntp36
Rp37
(dp38
g13
I00
sS'_ParameterTypeBase__isTracked'
p39
I01
sS'_isModified'
p40
I00
sS'_InputTag__moduleLabel'
p41
g28
sS'_InputTag__processName'
p42
S'PAT'
p43
sS'_InputTag__productInstance'
p44
S''
p45
sbsg40
I00
sg30
g0
(g35
g2
Ntp46
Rp47
(dp48
g13
I00
sg39
I01
sg40
I00
sg41
S'slimmedPhotons'
p49
sg42
g45
sg44
g45
sbsg27
g0
(g35
g2
Ntp50
Rp51
(dp52
g13
I00
sg39
I01
sg40
I00
sg41
S'generator'
p53
sg42
S'SIM'
p54
sg44
g45
sbsS'_filename'
p55
S'/uscms/home/bbbam/nobackup/CMSSW_10_2_26/src/diphoton-analysis/ExoEfficiencyAnalyzer/python/confFile_eff_cfg.py'
p56
sg31
g0
(g35
g2
Ntp57
Rp58
(dp59
g13
I00
sg39
I01
sg40
I00
sg41
S'offlineSlimmedPrimaryVertices'
p60
sg42
g45
sg44
g45
sbsS'_Labelable__label'
p61
S'exoeff'
p62
sS'_lineNumber'
p63
I44
sg32
g0
(g35
g2
Ntp64
Rp65
(dp66
g13
I00
sg39
I01
sg40
I00
sg41
g32
sg42
S'RECO'
p67
sg44
g45
sbsg33
g0
(g35
g2
Ntp68
Rp69
(dp70
g13
I00
sg39
I01
sg40
I00
sg41
S'fixedGridRhoAll'
p71
sg42
g45
sg44
g45
sbsg34
g0
(g35
g2
Ntp72
Rp73
(dp74
g13
I00
sg39
I01
sg40
I00
sg41
S'prunedGenParticles'
p75
sg42
g45
sg44
g45
sbsS'_TypedParameterizable__type'
p76
S'ExoEfficiencyAnalyzer'
p77
sg29
g0
(g35
g2
Ntp78
Rp79
(dp80
g13
I00
sg39
I01
sg40
I00
sg41
S'offlineBeamSpot'
p81
sg42
g67
sg44
g45
sbsbasbsg61
g8
sg40
I00
sS'_tasks'
p82
g0
(cFWCore.ParameterSet.OrderedSet
OrderedSet
p83
g2
Ntp84
Rp85
(dp86
S'map'
p87
(dp88
sS'end'
p89
(lp90
Nag90
ag90
asbsbsS'_Process__services'
p91
(dp92
S'TFileService'
p93
g0
(cFWCore.ParameterSet.Modules
Service
p94
g2
Ntp95
Rp96
(dp97
g25
(lp98
S'fileName'
p99
asg13
I00
sS'_inProcess'
p100
I01
sg40
I00
sg63
I11
sg55
S'/cvmfs/cms.cern.ch/slc7_amd64_gcc700/cms/cmssw/CMSSW_10_2_26/python/FWCore/ParameterSet/Modules.py'
p101
sg99
g0
(cFWCore.ParameterSet.Types
string
p102
g2
Ntp103
Rp104
(dp105
g13
I00
sg39
I01
sS'_value'
p106
S'ExoEfficiency.root'
p107
sg40
I00
sbsg76
g93
sbssS'_Process__source'
p108
g0
(cFWCore.ParameterSet.Modules
Source
p109
g2
Ntp110
Rp111
(dp112
g25
(lp113
S'fileNames'
p114
asg13
I00
sg40
I00
sg63
I193
sg55
g101
sg114
g0
(cFWCore.ParameterSet.Types
vstring
p115
c__builtin__
list
p116
(lp117
S'file:/uscms/home/bbbam/mc_RunIIAutumn18MiniAOD_ADDGravToGG_NegInt-0_LambdaT-10000_M-500To1000_TuneCP2_13TeV-pythia8_MINIAODSIM_102X_upgrade2018_realistic_v15-v1_70000_5C1E393E-C20D-E84F-9CD0-6399FA05DE2D.root'
p118
atp119
Rp120
(dp121
g13
I00
sg39
I00
sg40
I00
sS'_nPerLine'
p122
I1
sbsg76
S'PoolSource'
p123
sbsS'_Process__aliases'
p124
(dp125
sg62
g23
sS'_Process__psets'
p126
(dp127
S'maxEvents'
p128
g0
(cFWCore.ParameterSet.Types
PSet
p129
g2
Ntp130
Rp131
(dp132
g13
I00
sg39
I00
sg40
I00
sg25
(lp133
S'input'
p134
asg61
g128
sg134
g0
(cFWCore.ParameterSet.Types
int32
p135
g2
Ntp136
Rp137
(dp138
g13
I00
sg39
I00
sg106
I-1
sg40
I00
sbsbssg93
g96
sS'_Process__essources'
p139
(dp140
sg123
g111
sg128
g131
sS'source'
p141
g111
sS'_Process__vpsets'
p142
(dp143
sS'_Process__name'
p144
S'exoefficiency'
p145
sS'_Process__subProcesses'
p146
(lp147
sS'_cloneToObjectDict'
p148
(dp149
I140672290335376
g131
sI140672289681168
g23
sI140672289681232
g11
ssS'_Process__esprefers'
p150
(dp151
sS'_Process__schedule'
p152
NsS'_Process__outputmodules'
p153
(dp154
sS'_Process__analyzers'
p155
(dp156
g62
g23
ssS'_Process__InExtendCall'
p157
I00
sS'_Process__modifiers'
p158
(tsS'_Process__producers'
p159
(dp160
sS'_Process__filters'
p161
(dp162
sS'_Process__looper'
p163
NsS'_Process__endpaths'
p164
g0
(cFWCore.ParameterSet.DictTypes
SortedKeysDict
p165
c__builtin__
dict
p166
(dp167
tp168
Rp169
(dp170
S'list'
p171
(lp172
sbsS'_Process__esproducers'
p173
(dp174
sS'_Process__tasks'
p175
(dp176
sS'_Process__paths'
p177
g0
(g165
g166
(dp178
g8
g11
stp179
Rp180
(dp181
g171
(lp182
g8
asbsS'_Process__partialschedules'
p183
(dp184
sS'_Process__isStrict'
p185
I00
sb.