(dp1
S'OriginalConfig'
p2
ccopy_reg
_reconstructor
p3
(cWMCore.Configuration
Configuration
p4
c__builtin__
object
p5
NtRp6
(dp7
S'Site'
p8
g3
(cWMCore.Configuration
ConfigSection
p9
g5
NtRp10
(dp11
S'_internal_skipChecks'
p12
I00
sS'_internal_documentation'
p13
S''
sS'_internal_settings'
p14
c__builtin__
set
p15
((lp16
S'blacklist'
p17
aS'storageSite'
p18
atRp19
sS'_internal_name'
p20
g8
sS'_internal_docstrings'
p21
(dp22
sg17
(lp23
S'T1_RU_JINR'
p24
aS'T2_US_Vanderbilt'
p25
asS'_internal_children'
p26
g15
((ltRp27
sg18
S'T3_US_FNALLPC'
p28
sS'_internal_parent_ref'
p29
NsbsS'_internal_sections'
p30
(lp31
S'General'
p32
aS'JobType'
p33
aS'Data'
p34
ag8
asg32
g3
(g9
g5
NtRp35
(dp36
S'transferLogs'
p37
I00
sg12
I00
sg13
S''
sg14
g15
((lp38
g37
aS'transferOutputs'
p39
aS'workArea'
p40
aS'requestName'
p41
atRp42
sg20
g32
sg21
(dp43
sg39
I01
sg26
g15
((ltRp44
sg41
S'TESTFirstAN'
p45
sg29
Nsg40
S'outcrab'
p46
sbsS'_internal_webapps'
p47
(lp48
sS'_internal_components'
p49
(lp50
sg34
g3
(g9
g5
NtRp51
(dp52
S'inputDataset'
p53
S'/ADDGravToGG_NegInt-0_LambdaT-10000_M-500To1000_TuneCP2_13TeV-pythia8/RunIIAutumn18MiniAOD-102X_upgrade2018_realistic_v15-v1/MINIAODSIM'
p54
sg12
I00
sS'unitsPerJob'
p55
I100
sg13
S''
sg14
g15
((lp56
g55
ag53
aS'splitting'
p57
aS'outLFNDirBase'
p58
atRp59
sg20
g34
sg57
S'LumiBased'
p60
sg21
(dp61
sg26
g15
((ltRp62
sg58
S'/store/user/bhbam'
p63
sg29
Nsbsg33
g3
(g9
g5
NtRp64
(dp65
g12
I00
sg13
S''
sg14
g15
((lp66
S'psetName'
p67
aS'pluginName'
p68
aS'allowUndistributedCMSSW'
p69
atRp70
sg20
g33
sg21
(dp71
sg68
S'Analysis'
p72
sg26
g15
((ltRp73
sg69
I01
sg67
S'/uscms/home/bbbam/nobackup/CMSSW_10_2_26/src/diphoton-analysis/ExoEfficiencyAnalyzer/python/confFile_eff_cfg.py'
p74
sg29
NsbsbsS'voGroup'
p75
S''
sS'Server'
p76
S'cmsweb-k8s-prod.cern.ch'
p77
sS'instance'
p78
S'prod'
p79
sS'RequestName'
p80
V210413_150302:bhbam_crab_TESTFirstAN
p81
sS'voRole'
p82
S'NULL'
p83
sS'Port'
p84
S''
s.